target datalayout = "e-m:e-p270:32:32-p271:32:32-p272:64:64-i64:64-i128:128-f80:128-n8:16:32:64-S128"
target triple = "x86_64-pc-linux-gnu"

%struct.hs_database = type { i32, i32, i32, i64, i32, i32, i32, i32, [16 x i32], [0 x i8] }
%struct.unaligned.0 = type { i32 }
%struct.unaligned = type { i64 }

; Function Attrs: alwaysinline nounwind uwtable
define internal ptr @hs_get_bytecode(ptr noundef %0) #1 {
  %2 = alloca ptr, align 8
  store ptr %0, ptr %2, align 8
  %3 = load ptr, ptr %2, align 8
  %4 = load ptr, ptr %2, align 8
  %5 = getelementptr inbounds nuw %struct.hs_database, ptr %4, i32 0, i32 7
  %6 = load i32, ptr %5, align 4
  %7 = zext i32 %6 to i64
  %8 = getelementptr inbounds nuw i8, ptr %3, i64 %7
  ret ptr %8
}

; Function Attrs: alwaysinline nounwind uwtable
define internal i64 @unaligned_load_u64a(ptr noundef %0) #1 {
  %2 = alloca ptr, align 8
  %3 = alloca ptr, align 8
  store ptr %0, ptr %2, align 8
  call void @llvm.lifetime.start.p0(i64 8, ptr %3) #8
  %4 = load ptr, ptr %2, align 8
  store ptr %4, ptr %3, align 8
  %5 = load ptr, ptr %3, align 8
  %6 = getelementptr inbounds nuw %struct.unaligned, ptr %5, i32 0, i32 0
  %7 = load i64, ptr %6, align 1
  call void @llvm.lifetime.end.p0(i64 8, ptr %3) #8
  ret i64 %7
}

; Function Attrs: alwaysinline nounwind uwtable
define internal i32 @unaligned_load_u32(ptr noundef %0) #1 {
  %2 = alloca ptr, align 8
  %3 = alloca ptr, align 8
  store ptr %0, ptr %2, align 8
  call void @llvm.lifetime.start.p0(i64 8, ptr %3) #8
  %4 = load ptr, ptr %2, align 8
  store ptr %4, ptr %3, align 8
  %5 = load ptr, ptr %3, align 8
  %6 = getelementptr inbounds nuw %struct.unaligned.0, ptr %5, i32 0, i32 0
  %7 = load i32, ptr %6, align 1
  call void @llvm.lifetime.end.p0(i64 8, ptr %3) #8
  ret i32 %7
}

; Function Attrs: nounwind uwtable
define internal i32 @db_check_crc(ptr noundef %0) #0 {
  %2 = alloca i32, align 4
  %3 = alloca ptr, align 8
  %4 = alloca ptr, align 8
  %5 = alloca i32, align 4
  %6 = alloca i32, align 4
  store ptr %0, ptr %3, align 8
  call void @llvm.lifetime.start.p0(i64 8, ptr %4) #8
  %7 = load ptr, ptr %3, align 8
  %8 = call ptr @hs_get_bytecode(ptr noundef %7)
  store ptr %8, ptr %4, align 8
  call void @llvm.lifetime.start.p0(i64 4, ptr %5) #8
  %9 = load ptr, ptr %4, align 8
  %10 = load ptr, ptr %3, align 8
  %11 = getelementptr inbounds nuw %struct.hs_database, ptr %10, i32 0, i32 2
  %12 = load i32, ptr %11, align 8
  %13 = zext i32 %12 to i64
  %14 = call i32 @Crc32c_ComputeBuf(i32 noundef 0, ptr noundef %9, i64 noundef %13)
  store i32 %14, ptr %5, align 4
  %15 = load i32, ptr %5, align 4
  %16 = load ptr, ptr %3, align 8
  %17 = getelementptr inbounds nuw %struct.hs_database, ptr %16, i32 0, i32 4
  %18 = load i32, ptr %17, align 8
  %19 = icmp ne i32 %15, %18
  br i1 %19, label %20, label %24

20:                                               ; preds = %1
  br label %21

21:                                               ; preds = %20
  br label %22

22:                                               ; preds = %21
  br label %23

23:                                               ; preds = %22
  store i32 -1, ptr %2, align 4
  store i32 1, ptr %6, align 4
  br label %25

24:                                               ; preds = %1
  store i32 0, ptr %2, align 4
  store i32 1, ptr %6, align 4
  br label %25

25:                                               ; preds = %24, %23
  call void @llvm.lifetime.end.p0(i64 4, ptr %5) #8
  call void @llvm.lifetime.end.p0(i64 8, ptr %4) #8
  %26 = load i32, ptr %2, align 4
  ret i32 %26
}

; Function Attrs: nounwind uwtable
define internal void @db_copy_bytecode(ptr noundef %0, ptr noundef %1) #0 {
  %3 = alloca ptr, align 8
  %4 = alloca ptr, align 8
  %5 = alloca i64, align 8
  %6 = alloca ptr, align 8
  store ptr %0, ptr %3, align 8
  store ptr %1, ptr %4, align 8
  call void @llvm.lifetime.start.p0(i64 8, ptr %5) #8
  %7 = load ptr, ptr %4, align 8
  %8 = getelementptr inbounds nuw %struct.hs_database, ptr %7, i32 0, i32 9
  %9 = getelementptr inbounds [0 x i8], ptr %8, i64 0, i64 0
  %10 = ptrtoint ptr %9 to i64
  %11 = and i64 %10, 63
  store i64 %11, ptr %5, align 8
  %12 = load i64, ptr %5, align 8
  %13 = sub i64 104, %12
  %14 = trunc i64 %13 to i32
  %15 = load ptr, ptr %4, align 8
  %16 = getelementptr inbounds nuw %struct.hs_database, ptr %15, i32 0, i32 7
  store i32 %14, ptr %16, align 4
  call void @llvm.lifetime.start.p0(i64 8, ptr %6) #8
  %17 = load ptr, ptr %4, align 8
  %18 = load ptr, ptr %4, align 8
  %19 = getelementptr inbounds nuw %struct.hs_database, ptr %18, i32 0, i32 7
  %20 = load i32, ptr %19, align 4
  %21 = zext i32 %20 to i64
  %22 = getelementptr inbounds nuw i8, ptr %17, i64 %21
  store ptr %22, ptr %6, align 8
  %23 = load ptr, ptr %6, align 8
  %24 = load ptr, ptr %3, align 8
  %25 = load ptr, ptr %4, align 8
  %26 = getelementptr inbounds nuw %struct.hs_database, ptr %25, i32 0, i32 2
  %27 = load i32, ptr %26, align 8
  %28 = zext i32 %27 to i64
  call void @llvm.memcpy.p0.p0.i64(ptr align 1 %23, ptr align 1 %24, i64 %28, i1 false)
  call void @llvm.lifetime.end.p0(i64 8, ptr %6) #8
  call void @llvm.lifetime.end.p0(i64 8, ptr %5) #8
  ret void
}

; Function Attrs: nounwind uwtable
define internal i32 @db_check_platform(i64 noundef %0) #0 {
  %2 = alloca i32, align 4
  %3 = alloca i64, align 8
  store i64 %0, ptr %3, align 8
  %4 = load i64, ptr %3, align 8
  %5 = icmp ne i64 %4, 196608
  br i1 %5, label %6, label %16

6:                                                ; preds = %1
  %7 = load i64, ptr %3, align 8
  %8 = icmp ne i64 %7, 229376
  br i1 %8, label %9, label %16

9:                                                ; preds = %6
  %10 = load i64, ptr %3, align 8
  %11 = icmp ne i64 %10, 196608
  br i1 %11, label %12, label %16

12:                                               ; preds = %9
  %13 = load i64, ptr %3, align 8
  %14 = icmp ne i64 %13, 196608
  br i1 %14, label %15, label %16

15:                                               ; preds = %12
  store i32 -6, ptr %2, align 4
  br label %17

16:                                               ; preds = %12, %9, %6, %1
  store i32 0, ptr %2, align 4
  br label %17

17:                                               ; preds = %16, %15
  %18 = load i32, ptr %2, align 4
  ret i32 %18
}

; Function Attrs: nounwind uwtable
define internal i32 @db_decode_header(ptr noundef %0, i64 noundef %1, ptr noundef %2) #0 {
  %4 = alloca i32, align 4
  %5 = alloca ptr, align 8
  %6 = alloca i64, align 8
  %7 = alloca ptr, align 8
  %8 = alloca ptr, align 8
  %9 = alloca i32, align 4
  store ptr %0, ptr %5, align 8
  store i64 %1, ptr %6, align 8
  store ptr %2, ptr %7, align 8
  %10 = load ptr, ptr %5, align 8
  %11 = load ptr, ptr %10, align 8
  %12 = icmp ne ptr %11, null
  br i1 %12, label %14, label %13

13:                                               ; preds = %3
  store i32 -1, ptr %4, align 4
  br label %85

14:                                               ; preds = %3
  %15 = load i64, ptr %6, align 8
  %16 = icmp ult i64 %15, 104
  br i1 %16, label %17, label %18

17:                                               ; preds = %14
  store i32 -1, ptr %4, align 4
  br label %85

18:                                               ; preds = %14
  call void @llvm.lifetime.start.p0(i64 8, ptr %8) #8
  %19 = load ptr, ptr %5, align 8
  %20 = load ptr, ptr %19, align 8
  store ptr %20, ptr %8, align 8
  %21 = load ptr, ptr %7, align 8
  call void @llvm.memset.p0.i64(ptr align 8 %21, i8 0, i64 104, i1 false)
  %22 = load ptr, ptr %8, align 8
  %23 = getelementptr inbounds nuw i32, ptr %22, i32 1
  store ptr %23, ptr %8, align 8
  %24 = call i32 @unaligned_load_u32(ptr noundef %22)
  %25 = load ptr, ptr %7, align 8
  %26 = getelementptr inbounds nuw %struct.hs_database, ptr %25, i32 0, i32 0
  store i32 %24, ptr %26, align 8
  %27 = load ptr, ptr %7, align 8
  %28 = getelementptr inbounds nuw %struct.hs_database, ptr %27, i32 0, i32 0
  %29 = load i32, ptr %28, align 8
  %30 = icmp ne i32 %29, -606348325
  br i1 %30, label %31, label %32

31:                                               ; preds = %18
  store i32 -1, ptr %4, align 4
  store i32 1, ptr %9, align 4
  br label %84

32:                                               ; preds = %18
  %33 = load ptr, ptr %8, align 8
  %34 = getelementptr inbounds nuw i32, ptr %33, i32 1
  store ptr %34, ptr %8, align 8
  %35 = call i32 @unaligned_load_u32(ptr noundef %33)
  %36 = load ptr, ptr %7, align 8
  %37 = getelementptr inbounds nuw %struct.hs_database, ptr %36, i32 0, i32 1
  store i32 %35, ptr %37, align 4
  %38 = load ptr, ptr %7, align 8
  %39 = getelementptr inbounds nuw %struct.hs_database, ptr %38, i32 0, i32 1
  %40 = load i32, ptr %39, align 4
  %41 = icmp ne i32 %40, 84148736
  br i1 %41, label %42, label %43

42:                                               ; preds = %32
  store i32 -5, ptr %4, align 4
  store i32 1, ptr %9, align 4
  br label %84

43:                                               ; preds = %32
  %44 = load ptr, ptr %8, align 8
  %45 = getelementptr inbounds nuw i32, ptr %44, i32 1
  store ptr %45, ptr %8, align 8
  %46 = call i32 @unaligned_load_u32(ptr noundef %44)
  %47 = load ptr, ptr %7, align 8
  %48 = getelementptr inbounds nuw %struct.hs_database, ptr %47, i32 0, i32 2
  store i32 %46, ptr %48, align 8
  %49 = load i64, ptr %6, align 8
  %50 = load ptr, ptr %7, align 8
  %51 = getelementptr inbounds nuw %struct.hs_database, ptr %50, i32 0, i32 2
  %52 = load i32, ptr %51, align 8
  %53 = zext i32 %52 to i64
  %54 = add i64 104, %53
  %55 = icmp ne i64 %49, %54
  br i1 %55, label %56, label %60

56:                                               ; preds = %43
  br label %57

57:                                               ; preds = %56
  br label %58

58:                                               ; preds = %57
  br label %59

59:                                               ; preds = %58
  store i32 -1, ptr %4, align 4
  store i32 1, ptr %9, align 4
  br label %84

60:                                               ; preds = %43
  %61 = load ptr, ptr %8, align 8
  %62 = call i64 @unaligned_load_u64a(ptr noundef %61)
  %63 = load ptr, ptr %7, align 8
  %64 = getelementptr inbounds nuw %struct.hs_database, ptr %63, i32 0, i32 3
  store i64 %62, ptr %64, align 8
  %65 = load ptr, ptr %8, align 8
  %66 = getelementptr inbounds i32, ptr %65, i64 2
  store ptr %66, ptr %8, align 8
  %67 = load ptr, ptr %8, align 8
  %68 = getelementptr inbounds nuw i32, ptr %67, i32 1
  store ptr %68, ptr %8, align 8
  %69 = call i32 @unaligned_load_u32(ptr noundef %67)
  %70 = load ptr, ptr %7, align 8
  %71 = getelementptr inbounds nuw %struct.hs_database, ptr %70, i32 0, i32 4
  store i32 %69, ptr %71, align 8
  %72 = load ptr, ptr %8, align 8
  %73 = getelementptr inbounds nuw i32, ptr %72, i32 1
  store ptr %73, ptr %8, align 8
  %74 = call i32 @unaligned_load_u32(ptr noundef %72)
  %75 = load ptr, ptr %7, align 8
  %76 = getelementptr inbounds nuw %struct.hs_database, ptr %75, i32 0, i32 5
  store i32 %74, ptr %76, align 4
  %77 = load ptr, ptr %8, align 8
  %78 = getelementptr inbounds nuw i32, ptr %77, i32 1
  store ptr %78, ptr %8, align 8
  %79 = call i32 @unaligned_load_u32(ptr noundef %77)
  %80 = load ptr, ptr %7, align 8
  %81 = getelementptr inbounds nuw %struct.hs_database, ptr %80, i32 0, i32 6
  store i32 %79, ptr %81, align 8
  %82 = load ptr, ptr %8, align 8
  %83 = load ptr, ptr %5, align 8
  store ptr %82, ptr %83, align 8
  store i32 0, ptr %4, align 4
  store i32 1, ptr %9, align 4
  br label %84

84:                                               ; preds = %60, %59, %42, %31
  call void @llvm.lifetime.end.p0(i64 8, ptr %8) #8
  br label %85

85:                                               ; preds = %84, %17, %13
  %86 = load i32, ptr %4, align 4
  ret i32 %86
}

; Function Attrs: nounwind uwtable
define dso_local i32 @hs_deserialize_database_at(ptr noundef %0, i64 noundef %1, ptr noundef %2) #0 {
  %4 = alloca i32, align 4
  %5 = alloca ptr, align 8
  %6 = alloca i64, align 8
  %7 = alloca ptr, align 8
  %8 = alloca %struct.hs_database, align 8
  %9 = alloca i32, align 4
  %10 = alloca i32, align 4
  %11 = alloca i64, align 8
  store ptr %0, ptr %5, align 8
  store i64 %1, ptr %6, align 8
  store ptr %2, ptr %7, align 8
  %12 = load ptr, ptr %5, align 8
  %13 = icmp ne ptr %12, null
  br i1 %13, label %14, label %17

14:                                               ; preds = %3
  %15 = load ptr, ptr %7, align 8
  %16 = icmp ne ptr %15, null
  br i1 %16, label %18, label %17

17:                                               ; preds = %14, %3
  store i32 -1, ptr %4, align 4
  br label %56

18:                                               ; preds = %14
  %19 = load ptr, ptr %7, align 8
  %20 = ptrtoint ptr %19 to i64
  %21 = and i64 %20, 7
  %22 = icmp eq i64 %21, 0
  br i1 %22, label %24, label %23

23:                                               ; preds = %18
  store i32 -8, ptr %4, align 4
  br label %56

24:                                               ; preds = %18
  call void @llvm.lifetime.start.p0(i64 104, ptr %8) #8
  call void @llvm.lifetime.start.p0(i64 4, ptr %9) #8
  %25 = load i64, ptr %6, align 8
  %26 = call i32 @db_decode_header(ptr noundef %5, i64 noundef %25, ptr noundef %8)
  store i32 %26, ptr %9, align 4
  %27 = load i32, ptr %9, align 4
  %28 = icmp ne i32 %27, 0
  br i1 %28, label %29, label %31

29:                                               ; preds = %24
  %30 = load i32, ptr %9, align 4
  store i32 %30, ptr %4, align 4
  store i32 1, ptr %10, align 4
  br label %55

31:                                               ; preds = %24
  %32 = getelementptr inbounds nuw %struct.hs_database, ptr %8, i32 0, i32 3
  %33 = load i64, ptr %32, align 8
  %34 = call i32 @db_check_platform(i64 noundef %33)
  store i32 %34, ptr %9, align 4
  %35 = load i32, ptr %9, align 4
  %36 = icmp ne i32 %35, 0
  br i1 %36, label %37, label %39

37:                                               ; preds = %31
  %38 = load i32, ptr %9, align 4
  store i32 %38, ptr %4, align 4
  store i32 1, ptr %10, align 4
  br label %55

39:                                               ; preds = %31
  call void @llvm.lifetime.start.p0(i64 8, ptr %11) #8
  %40 = getelementptr inbounds nuw %struct.hs_database, ptr %8, i32 0, i32 2
  %41 = load i32, ptr %40, align 8
  %42 = zext i32 %41 to i64
  %43 = add i64 104, %42
  store i64 %43, ptr %11, align 8
  %44 = load ptr, ptr %7, align 8
  %45 = load i64, ptr %11, align 8
  call void @llvm.memset.p0.i64(ptr align 8 %44, i8 0, i64 %45, i1 false)
  %46 = load ptr, ptr %7, align 8
  call void @llvm.memcpy.p0.p0.i64(ptr align 8 %46, ptr align 8 %8, i64 104, i1 false)
  %47 = load ptr, ptr %5, align 8
  %48 = load ptr, ptr %7, align 8
  call void @db_copy_bytecode(ptr noundef %47, ptr noundef %48)
  %49 = load ptr, ptr %7, align 8
  %50 = call i32 @db_check_crc(ptr noundef %49)
  %51 = icmp ne i32 %50, 0
  br i1 %51, label %52, label %53

52:                                               ; preds = %39
  store i32 -1, ptr %4, align 4
  store i32 1, ptr %10, align 4
  br label %54

53:                                               ; preds = %39
  store i32 0, ptr %4, align 4
  store i32 1, ptr %10, align 4
  br label %54

54:                                               ; preds = %53, %52
  call void @llvm.lifetime.end.p0(i64 8, ptr %11) #8
  br label %55

55:                                               ; preds = %54, %37, %29
  call void @llvm.lifetime.end.p0(i64 4, ptr %9) #8
  call void @llvm.lifetime.end.p0(i64 104, ptr %8) #8
  br label %56

56:                                               ; preds = %55, %23, %17
  %57 = load i32, ptr %4, align 4
  ret i32 %57
}