; Function Attrs: nounwind uwtable
define dso_local range(i32 -8, 1) i32 @hs_deserialize_database_at(ptr noundef readonly %0, i64 noundef %1, ptr noundef %2) local_unnamed_addr #0 {
  %4 = icmp ne ptr %0, null
  %5 = icmp ne ptr %2, null
  %or.cond = and i1 %4, %5
  br i1 %or.cond, label %6, label %db_decode_header.exit.thread

6:                                                ; preds = %3
  %7 = ptrtoint ptr %2 to i64
  %8 = and i64 %7, 7
  %9 = icmp eq i64 %8, 0
  br i1 %9, label %10, label %db_decode_header.exit.thread

10:                                               ; preds = %6
  %11 = icmp ult i64 %1, 104
  br i1 %11, label %db_decode_header.exit.thread, label %12

12:                                               ; preds = %10
  %13 = load i32, ptr %0, align 1
  %.not27.i = icmp eq i32 %13, -606348325
  br i1 %.not27.i, label %14, label %db_decode_header.exit.thread

14:                                               ; preds = %12
  %15 = getelementptr inbounds nuw i8, ptr %0, i64 4
  %16 = load i32, ptr %15, align 1
  %.not28.i = icmp eq i32 %16, 84148736
  br i1 %.not28.i, label %17, label %db_decode_header.exit.thread

17:                                               ; preds = %14
  %18 = getelementptr inbounds nuw i8, ptr %0, i64 8
  %19 = load i32, ptr %18, align 1
  %20 = zext i32 %19 to i64
  %21 = add nuw nsw i64 %20, 104
  %.not29.i = icmp eq i64 %1, %21
  br i1 %.not29.i, label %22, label %db_decode_header.exit.thread

22:                                               ; preds = %17
  %23 = getelementptr inbounds nuw i8, ptr %0, i64 12
  %24 = load i64, ptr %23, align 1
  %25 = and i64 %24, -32769
  %or.cond.not.i = icmp eq i64 %25, 196608
  br i1 %or.cond.not.i, label %26, label %db_decode_header.exit.thread

26:                                               ; preds = %22
  %27 = getelementptr inbounds nuw i8, ptr %0, i64 28
  %28 = load i32, ptr %27, align 1
  %29 = getelementptr inbounds nuw i8, ptr %0, i64 32
  %30 = getelementptr inbounds nuw i8, ptr %0, i64 24
  %31 = load i32, ptr %30, align 1
  %32 = getelementptr inbounds nuw i8, ptr %0, i64 20
  %33 = load i32, ptr %32, align 1
  tail call void @llvm.memset.p0.i64(ptr noundef nonnull align 8 dereferenceable(1) %2, i8 0, i64 %1, i1 false)
  store i32 -606348325, ptr %2, align 8
  %.sroa.5.0..sroa_idx = getelementptr inbounds nuw i8, ptr %2, i64 4
  store i32 84148736, ptr %.sroa.5.0..sroa_idx, align 4
  %.sroa.6.0..sroa_idx = getelementptr inbounds nuw i8, ptr %2, i64 8
  store i32 %19, ptr %.sroa.6.0..sroa_idx, align 8
  %.sroa.8.0..sroa_idx = getelementptr inbounds nuw i8, ptr %2, i64 12
  store i32 0, ptr %.sroa.8.0..sroa_idx, align 4
  %.sroa.820.0..sroa_idx = getelementptr inbounds nuw i8, ptr %2, i64 16
  store i64 %24, ptr %.sroa.820.0..sroa_idx, align 8
  %.sroa.10.0..sroa_idx = getelementptr inbounds nuw i8, ptr %2, i64 24
  store i32 %33, ptr %.sroa.10.0..sroa_idx, align 8
  %.sroa.11.0..sroa_idx = getelementptr inbounds nuw i8, ptr %2, i64 28
  store i32 %31, ptr %.sroa.11.0..sroa_idx, align 4
  %.sroa.12.0..sroa_idx = getelementptr inbounds nuw i8, ptr %2, i64 32
  store i32 %28, ptr %.sroa.12.0..sroa_idx, align 8
  %.sroa.13.0..sroa_idx = getelementptr inbounds nuw i8, ptr %2, i64 36
  %34 = getelementptr inbounds nuw i8, ptr %2, i64 40
  tail call void @llvm.memset.p0.i64(ptr noundef nonnull align 4 dereferenceable(64) %34, i8 0, i64 64, i1 false)
  %35 = getelementptr inbounds nuw i8, ptr %2, i64 104
  %36 = ptrtoint ptr %35 to i64
  %37 = trunc i64 %36 to i32
  %38 = and i32 %37, 56
  %39 = sub nuw nsw i32 104, %38
  store i32 %39, ptr %.sroa.13.0..sroa_idx, align 4
  %40 = zext nneg i32 %39 to i64
  %41 = getelementptr inbounds nuw i8, ptr %2, i64 %40
  tail call void @llvm.memcpy.p0.p0.i64(ptr nonnull align 1 %41, ptr nonnull readonly align 1 %29, i64 %20, i1 false)
  %42 = load i32, ptr %.sroa.13.0..sroa_idx, align 4
  %43 = zext i32 %42 to i64
  %44 = getelementptr inbounds nuw i8, ptr %2, i64 %43
  %45 = load i32, ptr %.sroa.6.0..sroa_idx, align 8
  %46 = zext i32 %45 to i64
  %47 = tail call i32 @Crc32c_ComputeBuf(i32 noundef 0, ptr noundef nonnull %44, i64 noundef %46) #6
  %48 = load i32, ptr %.sroa.10.0..sroa_idx, align 8
  %.not.i18.not = icmp ne i32 %47, %48
  %. = sext i1 %.not.i18.not to i32
  br label %db_decode_header.exit.thread

db_decode_header.exit.thread:                     ; preds = %26, %22, %10, %12, %14, %17, %6, %3
  %.0 = phi i32 [ -1, %3 ], [ -8, %6 ], [ %., %26 ], [ -6, %22 ], [ -1, %17 ], [ -5, %14 ], [ -1, %12 ], [ -1, %10 ]
  ret i32 %.0
}